target datalayout = "e-m:e-p270:32:32-p271:32:32-p272:64:64-i64:64-i128:128-f80:128-n8:16:32:64-S128"
target triple = "x86_64-unknown-linux-gnu"

%"class.node::inspector::TcpHolder" = type { %struct.uv_tcp_s, %"class.std::unique_ptr.2", ptr, %"class.std::vector" }
%struct.uv_tcp_s = type { ptr, ptr, i32, ptr, %struct.uv__queue, %union.anon, ptr, i32, i64, ptr, ptr, ptr, ptr, %struct.uv__io_s, %struct.uv__queue, %struct.uv__queue, ptr, i32, i32, ptr }
%union.anon = type { [4 x ptr] }
%struct.uv__io_s = type { ptr, %struct.uv__queue, %struct.uv__queue, i32, i32, i32 }
%struct.uv__queue = type { ptr, ptr }
%"class.std::unique_ptr.2" = type { %"struct.std::__uniq_ptr_data.3" }
%"struct.std::__uniq_ptr_data.3" = type { %"class.std::__uniq_ptr_impl.4" }
%"class.std::__uniq_ptr_impl.4" = type { %"class.std::tuple.5" }
%"class.std::tuple.5" = type { %"struct.std::_Tuple_impl.6" }
%"struct.std::_Tuple_impl.6" = type { %"struct.std::_Head_base.9" }
%"struct.std::_Head_base.9" = type { ptr }
%"class.std::vector" = type { %"struct.std::_Vector_base" }
%"struct.std::_Vector_base" = type { %"struct.std::_Vector_base<char, std::allocator<char>>::_Vector_impl" }
%"struct.std::_Vector_base<char, std::allocator<char>>::_Vector_impl" = type { %"struct.std::_Vector_base<char, std::allocator<char>>::_Vector_impl_data" }
%"struct.std::_Vector_base<char, std::allocator<char>>::_Vector_impl_data" = type { ptr, ptr, ptr }
%struct.uv_buf_t = type { ptr, i64 }
%"class.node::ContainerOfHelper" = type { ptr }
%"class.__gnu_cxx::__normal_iterator.12" = type { ptr }
%"class.__gnu_cxx::__normal_iterator" = type { ptr }

; Function Attrs: mustprogress nounwind uwtable
define linkonce_odr dso_local void @_ZSt19__iterator_categoryIPcENSt15iterator_traitsIT_E17iterator_categoryERKS2_(ptr noundef nonnull align 8 dereferenceable(8) %0) #0 comdat {
entry:
  %.addr = alloca ptr, align 8
  store ptr %0, ptr %.addr, align 8
  ret void
}

; Function Attrs: mustprogress nounwind uwtable
define linkonce_odr dso_local noundef nonnull align 8 dereferenceable(8) ptr @_ZNK9__gnu_cxx17__normal_iteratorIPKcSt6vectorIcSaIcEEE4baseEv(ptr noundef nonnull align 8 dereferenceable(8) %this) #0 comdat align 2 {
entry:
  %this.addr = alloca ptr, align 8
  store ptr %this, ptr %this.addr, align 8
  %this1 = load ptr, ptr %this.addr, align 8
  %_M_current = getelementptr inbounds %"class.__gnu_cxx::__normal_iterator.12", ptr %this1, i32 0, i32 0
  ret ptr %_M_current
}

; Function Attrs: mustprogress nounwind uwtable
define linkonce_odr dso_local void @_ZN9__gnu_cxx17__normal_iteratorIPKcSt6vectorIcSaIcEEEC2ERKS2_(ptr noundef nonnull align 8 dereferenceable(8) %this, ptr noundef nonnull align 8 dereferenceable(8) %__i) unnamed_addr #0 comdat align 2 {
entry:
  %this.addr = alloca ptr, align 8
  %__i.addr = alloca ptr, align 8
  store ptr %this, ptr %this.addr, align 8
  store ptr %__i, ptr %__i.addr, align 8
  %this1 = load ptr, ptr %this.addr, align 8
  %_M_current = getelementptr inbounds %"class.__gnu_cxx::__normal_iterator.12", ptr %this1, i32 0, i32 0
  %0 = load ptr, ptr %__i.addr, align 8
  %1 = load ptr, ptr %0, align 8
  store ptr %1, ptr %_M_current, align 8
  ret void
}

; Function Attrs: mustprogress nounwind uwtable
define linkonce_odr dso_local noundef i64 @_ZN4node8OffsetOfI8uv_tcp_sNS_9inspector9TcpHolderEEEmMT0_T_(i64 %field) #0 comdat {
entry:
  %field.addr = alloca i64, align 8
  store i64 %field, ptr %field.addr, align 8
  %0 = load i64, ptr %field.addr, align 8
  %memptr.offset = getelementptr inbounds i8, ptr null, i64 %0
  %1 = ptrtoint ptr %memptr.offset to i64
  ret i64 %1
}

; Function Attrs: mustprogress nounwind uwtable
define linkonce_odr dso_local void @_ZNSt6vectorIcSaIcEE18_M_insert_dispatchIPcEEvN9__gnu_cxx17__normal_iteratorIS3_S1_EET_S7_St12__false_type(ptr noundef nonnull align 8 dereferenceable(24) %this, ptr %__pos.coerce, ptr noundef %__first, ptr noundef %__last) #0 comdat align 2 {
entry:
  %__pos = alloca %"class.__gnu_cxx::__normal_iterator", align 8
  %this.addr = alloca ptr, align 8
  %__first.addr = alloca ptr, align 8
  %__last.addr = alloca ptr, align 8
  %agg.tmp = alloca %"class.__gnu_cxx::__normal_iterator", align 8
  %coerce.dive = getelementptr inbounds %"class.__gnu_cxx::__normal_iterator", ptr %__pos, i32 0, i32 0
  store ptr %__pos.coerce, ptr %coerce.dive, align 8
  store ptr %this, ptr %this.addr, align 8
  store ptr %__first, ptr %__first.addr, align 8
  store ptr %__last, ptr %__last.addr, align 8
  %this1 = load ptr, ptr %this.addr, align 8
  call void @llvm.memcpy.p0.p0.i64(ptr align 8 %agg.tmp, ptr align 8 %__pos, i64 8, i1 false)
  %0 = load ptr, ptr %__first.addr, align 8
  %1 = load ptr, ptr %__last.addr, align 8
  call void @_ZSt19__iterator_categoryIPcENSt15iterator_traitsIT_E17iterator_categoryERKS2_(ptr noundef nonnull align 8 dereferenceable(8) %__first.addr)
  %coerce.dive3 = getelementptr inbounds %"class.__gnu_cxx::__normal_iterator", ptr %agg.tmp, i32 0, i32 0
  %2 = load ptr, ptr %coerce.dive3, align 8
  call void @_ZNSt6vectorIcSaIcEE15_M_range_insertIPcEEvN9__gnu_cxx17__normal_iteratorIS3_S1_EET_S7_St20forward_iterator_tag(ptr noundef nonnull align 8 dereferenceable(24) %this1, ptr %2, ptr noundef %0, ptr noundef %1)
  ret void
}

; Function Attrs: mustprogress nounwind uwtable
define linkonce_odr dso_local ptr @_ZNK9__gnu_cxx17__normal_iteratorIPcSt6vectorIcSaIcEEEplEl(ptr noundef nonnull align 8 dereferenceable(8) %this, i64 noundef %__n) #0 comdat align 2 {
entry:
  %retval = alloca %"class.__gnu_cxx::__normal_iterator", align 8
  %this.addr = alloca ptr, align 8
  %__n.addr = alloca i64, align 8
  %ref.tmp = alloca ptr, align 8
  store ptr %this, ptr %this.addr, align 8
  store i64 %__n, ptr %__n.addr, align 8
  %this1 = load ptr, ptr %this.addr, align 8
  %_M_current = getelementptr inbounds %"class.__gnu_cxx::__normal_iterator", ptr %this1, i32 0, i32 0
  %0 = load ptr, ptr %_M_current, align 8
  %1 = load i64, ptr %__n.addr, align 8
  %add.ptr = getelementptr inbounds i8, ptr %0, i64 %1
  store ptr %add.ptr, ptr %ref.tmp, align 8
  call void @_ZN9__gnu_cxx17__normal_iteratorIPcSt6vectorIcSaIcEEEC2ERKS1_(ptr noundef nonnull align 8 dereferenceable(8) %retval, ptr noundef nonnull align 8 dereferenceable(8) %ref.tmp) #13
  %coerce.dive = getelementptr inbounds %"class.__gnu_cxx::__normal_iterator", ptr %retval, i32 0, i32 0
  %2 = load ptr, ptr %coerce.dive, align 8
  ret ptr %2
}

; Function Attrs: mustprogress nounwind uwtable
define linkonce_odr dso_local ptr @_ZNSt6vectorIcSaIcEE5beginEv(ptr noundef nonnull align 8 dereferenceable(24) %this) #0 comdat align 2 {
entry:
  %retval = alloca %"class.__gnu_cxx::__normal_iterator", align 8
  %this.addr = alloca ptr, align 8
  store ptr %this, ptr %this.addr, align 8
  %this1 = load ptr, ptr %this.addr, align 8
  %_M_impl = getelementptr inbounds %"struct.std::_Vector_base", ptr %this1, i32 0, i32 0
  %_M_start = getelementptr inbounds %"struct.std::_Vector_base<char, std::allocator<char>>::_Vector_impl_data", ptr %_M_impl, i32 0, i32 0
  call void @_ZN9__gnu_cxx17__normal_iteratorIPcSt6vectorIcSaIcEEEC2ERKS1_(ptr noundef nonnull align 8 dereferenceable(8) %retval, ptr noundef nonnull align 8 dereferenceable(8) %_M_start) #13
  %coerce.dive = getelementptr inbounds %"class.__gnu_cxx::__normal_iterator", ptr %retval, i32 0, i32 0
  %0 = load ptr, ptr %coerce.dive, align 8
  ret ptr %0
}

; Function Attrs: mustprogress nounwind uwtable
define linkonce_odr dso_local noundef i64 @_ZN9__gnu_cxxmiIPKcSt6vectorIcSaIcEEEENS_17__normal_iteratorIT_T0_E15difference_typeERKS9_SC_(ptr noundef nonnull align 8 dereferenceable(8) %__lhs, ptr noundef nonnull align 8 dereferenceable(8) %__rhs) #0 comdat {
entry:
  %__lhs.addr = alloca ptr, align 8
  %__rhs.addr = alloca ptr, align 8
  store ptr %__lhs, ptr %__lhs.addr, align 8
  store ptr %__rhs, ptr %__rhs.addr, align 8
  %0 = load ptr, ptr %__lhs.addr, align 8
  %call = call noundef nonnull align 8 dereferenceable(8) ptr @_ZNK9__gnu_cxx17__normal_iteratorIPKcSt6vectorIcSaIcEEE4baseEv(ptr noundef nonnull align 8 dereferenceable(8) %0) #13
  %1 = load ptr, ptr %call, align 8
  %2 = load ptr, ptr %__rhs.addr, align 8
  %call1 = call noundef nonnull align 8 dereferenceable(8) ptr @_ZNK9__gnu_cxx17__normal_iteratorIPKcSt6vectorIcSaIcEEE4baseEv(ptr noundef nonnull align 8 dereferenceable(8) %2) #13
  %3 = load ptr, ptr %call1, align 8
  %sub.ptr.lhs.cast = ptrtoint ptr %1 to i64
  %sub.ptr.rhs.cast = ptrtoint ptr %3 to i64
  %sub.ptr.sub = sub i64 %sub.ptr.lhs.cast, %sub.ptr.rhs.cast
  ret i64 %sub.ptr.sub
}

; Function Attrs: mustprogress nounwind uwtable
define linkonce_odr dso_local ptr @_ZNKSt6vectorIcSaIcEE6cbeginEv(ptr noundef nonnull align 8 dereferenceable(24) %this) #0 comdat align 2 {
entry:
  %retval = alloca %"class.__gnu_cxx::__normal_iterator.12", align 8
  %this.addr = alloca ptr, align 8
  store ptr %this, ptr %this.addr, align 8
  %this1 = load ptr, ptr %this.addr, align 8
  %_M_impl = getelementptr inbounds %"struct.std::_Vector_base", ptr %this1, i32 0, i32 0
  %_M_start = getelementptr inbounds %"struct.std::_Vector_base<char, std::allocator<char>>::_Vector_impl_data", ptr %_M_impl, i32 0, i32 0
  call void @_ZN9__gnu_cxx17__normal_iteratorIPKcSt6vectorIcSaIcEEEC2ERKS2_(ptr noundef nonnull align 8 dereferenceable(8) %retval, ptr noundef nonnull align 8 dereferenceable(8) %_M_start) #13
  %coerce.dive = getelementptr inbounds %"class.__gnu_cxx::__normal_iterator.12", ptr %retval, i32 0, i32 0
  %0 = load ptr, ptr %coerce.dive, align 8
  ret ptr %0
}

; Function Attrs: mustprogress nounwind uwtable
define linkonce_odr dso_local noundef nonnull align 8 dereferenceable(8) ptr @_ZNK9__gnu_cxx17__normal_iteratorIPcSt6vectorIcSaIcEEE4baseEv(ptr noundef nonnull align 8 dereferenceable(8) %this) #0 comdat align 2 {
entry:
  %this.addr = alloca ptr, align 8
  store ptr %this, ptr %this.addr, align 8
  %this1 = load ptr, ptr %this.addr, align 8
  %_M_current = getelementptr inbounds %"class.__gnu_cxx::__normal_iterator", ptr %this1, i32 0, i32 0
  ret ptr %_M_current
}

; Function Attrs: mustprogress nounwind uwtable
define linkonce_odr dso_local void @_ZN9__gnu_cxx17__normal_iteratorIPcSt6vectorIcSaIcEEEC2ERKS1_(ptr noundef nonnull align 8 dereferenceable(8) %this, ptr noundef nonnull align 8 dereferenceable(8) %__i) unnamed_addr #0 comdat align 2 {
entry:
  %this.addr = alloca ptr, align 8
  %__i.addr = alloca ptr, align 8
  store ptr %this, ptr %this.addr, align 8
  store ptr %__i, ptr %__i.addr, align 8
  %this1 = load ptr, ptr %this.addr, align 8
  %_M_current = getelementptr inbounds %"class.__gnu_cxx::__normal_iterator", ptr %this1, i32 0, i32 0
  %0 = load ptr, ptr %__i.addr, align 8
  %1 = load ptr, ptr %0, align 8
  store ptr %1, ptr %_M_current, align 8
  ret void
}

; Function Attrs: mustprogress nounwind uwtable
define linkonce_odr dso_local void @_ZN4node17ContainerOfHelperI8uv_tcp_sNS_9inspector9TcpHolderEEC2EMS3_S1_PS1_(ptr noundef nonnull align 8 dereferenceable(8) %this, i64 %field, ptr noundef %pointer) unnamed_addr #0 comdat align 2 {
entry:
  %this.addr = alloca ptr, align 8
  %field.addr = alloca i64, align 8
  %pointer.addr = alloca ptr, align 8
  store ptr %this, ptr %this.addr, align 8
  store i64 %field, ptr %field.addr, align 8
  store ptr %pointer, ptr %pointer.addr, align 8
  %this1 = load ptr, ptr %this.addr, align 8
  %pointer_ = getelementptr inbounds %"class.node::ContainerOfHelper", ptr %this1, i32 0, i32 0
  %0 = load ptr, ptr %pointer.addr, align 8
  %1 = ptrtoint ptr %0 to i64
  %2 = load i64, ptr %field.addr, align 8
  %call = call noundef i64 @_ZN4node8OffsetOfI8uv_tcp_sNS_9inspector9TcpHolderEEEmMT0_T_(i64 %2)
  %sub = sub i64 %1, %call
  %3 = inttoptr i64 %sub to ptr
  store ptr %3, ptr %pointer_, align 8
  ret void
}

; Function Attrs: mustprogress nounwind uwtable
define linkonce_odr dso_local ptr @_ZNSt6vectorIcSaIcEE6insertIPcvEEN9__gnu_cxx17__normal_iteratorIS3_S1_EENS5_IPKcS1_EET_SA_(ptr noundef nonnull align 8 dereferenceable(24) %this, ptr %__position.coerce, ptr noundef %__first, ptr noundef %__last) #0 comdat align 2 {
entry:
  %retval = alloca %"class.__gnu_cxx::__normal_iterator", align 8
  %__position = alloca %"class.__gnu_cxx::__normal_iterator.12", align 8
  %this.addr = alloca ptr, align 8
  %__first.addr = alloca ptr, align 8
  %__last.addr = alloca ptr, align 8
  %__offset = alloca i64, align 8
  %ref.tmp = alloca %"class.__gnu_cxx::__normal_iterator.12", align 8
  %agg.tmp = alloca %"class.__gnu_cxx::__normal_iterator", align 8
  %ref.tmp4 = alloca %"class.__gnu_cxx::__normal_iterator", align 8
  %ref.tmp11 = alloca %"class.__gnu_cxx::__normal_iterator", align 8
  %coerce.dive = getelementptr inbounds %"class.__gnu_cxx::__normal_iterator.12", ptr %__position, i32 0, i32 0
  store ptr %__position.coerce, ptr %coerce.dive, align 8
  store ptr %this, ptr %this.addr, align 8
  store ptr %__first, ptr %__first.addr, align 8
  store ptr %__last, ptr %__last.addr, align 8
  %this1 = load ptr, ptr %this.addr, align 8
  %call = call ptr @_ZNKSt6vectorIcSaIcEE6cbeginEv(ptr noundef nonnull align 8 dereferenceable(24) %this1) #13
  %coerce.dive2 = getelementptr inbounds %"class.__gnu_cxx::__normal_iterator.12", ptr %ref.tmp, i32 0, i32 0
  store ptr %call, ptr %coerce.dive2, align 8
  %call3 = call noundef i64 @_ZN9__gnu_cxxmiIPKcSt6vectorIcSaIcEEEENS_17__normal_iteratorIT_T0_E15difference_typeERKS9_SC_(ptr noundef nonnull align 8 dereferenceable(8) %__position, ptr noundef nonnull align 8 dereferenceable(8) %ref.tmp) #13
  store i64 %call3, ptr %__offset, align 8
  %call5 = call ptr @_ZNSt6vectorIcSaIcEE5beginEv(ptr noundef nonnull align 8 dereferenceable(24) %this1) #13
  %coerce.dive6 = getelementptr inbounds %"class.__gnu_cxx::__normal_iterator", ptr %ref.tmp4, i32 0, i32 0
  store ptr %call5, ptr %coerce.dive6, align 8
  %0 = load i64, ptr %__offset, align 8
  %call7 = call ptr @_ZNK9__gnu_cxx17__normal_iteratorIPcSt6vectorIcSaIcEEEplEl(ptr noundef nonnull align 8 dereferenceable(8) %ref.tmp4, i64 noundef %0) #13
  %coerce.dive8 = getelementptr inbounds %"class.__gnu_cxx::__normal_iterator", ptr %agg.tmp, i32 0, i32 0
  store ptr %call7, ptr %coerce.dive8, align 8
  %1 = load ptr, ptr %__first.addr, align 8
  %2 = load ptr, ptr %__last.addr, align 8
  %coerce.dive10 = getelementptr inbounds %"class.__gnu_cxx::__normal_iterator", ptr %agg.tmp, i32 0, i32 0
  %3 = load ptr, ptr %coerce.dive10, align 8
  call void @_ZNSt6vectorIcSaIcEE18_M_insert_dispatchIPcEEvN9__gnu_cxx17__normal_iteratorIS3_S1_EET_S7_St12__false_type(ptr noundef nonnull align 8 dereferenceable(24) %this1, ptr %3, ptr noundef %1, ptr noundef %2)
  %call12 = call ptr @_ZNSt6vectorIcSaIcEE5beginEv(ptr noundef nonnull align 8 dereferenceable(24) %this1) #13
  %coerce.dive13 = getelementptr inbounds %"class.__gnu_cxx::__normal_iterator", ptr %ref.tmp11, i32 0, i32 0
  store ptr %call12, ptr %coerce.dive13, align 8
  %4 = load i64, ptr %__offset, align 8
  %call14 = call ptr @_ZNK9__gnu_cxx17__normal_iteratorIPcSt6vectorIcSaIcEEEplEl(ptr noundef nonnull align 8 dereferenceable(8) %ref.tmp11, i64 noundef %4) #13
  %coerce.dive15 = getelementptr inbounds %"class.__gnu_cxx::__normal_iterator", ptr %retval, i32 0, i32 0
  store ptr %call14, ptr %coerce.dive15, align 8
  %coerce.dive16 = getelementptr inbounds %"class.__gnu_cxx::__normal_iterator", ptr %retval, i32 0, i32 0
  %5 = load ptr, ptr %coerce.dive16, align 8
  ret ptr %5
}

; Function Attrs: mustprogress nounwind uwtable
define linkonce_odr dso_local void @_ZN9__gnu_cxx17__normal_iteratorIPKcSt6vectorIcSaIcEEEC2IPcvEERKNS0_IT_S5_EE(ptr noundef nonnull align 8 dereferenceable(8) %this, ptr noundef nonnull align 8 dereferenceable(8) %__i) unnamed_addr #0 comdat align 2 {
entry:
  %this.addr = alloca ptr, align 8
  %__i.addr = alloca ptr, align 8
  store ptr %this, ptr %this.addr, align 8
  store ptr %__i, ptr %__i.addr, align 8
  %this1 = load ptr, ptr %this.addr, align 8
  %_M_current = getelementptr inbounds %"class.__gnu_cxx::__normal_iterator.12", ptr %this1, i32 0, i32 0
  %0 = load ptr, ptr %__i.addr, align 8
  %call = call noundef nonnull align 8 dereferenceable(8) ptr @_ZNK9__gnu_cxx17__normal_iteratorIPcSt6vectorIcSaIcEEE4baseEv(ptr noundef nonnull align 8 dereferenceable(8) %0) #13
  %1 = load ptr, ptr %call, align 8
  store ptr %1, ptr %_M_current, align 8
  ret void
}

; Function Attrs: mustprogress nounwind uwtable
define linkonce_odr dso_local ptr @_ZNSt6vectorIcSaIcEE3endEv(ptr noundef nonnull align 8 dereferenceable(24) %this) #0 comdat align 2 {
entry:
  %retval = alloca %"class.__gnu_cxx::__normal_iterator", align 8
  %this.addr = alloca ptr, align 8
  store ptr %this, ptr %this.addr, align 8
  %this1 = load ptr, ptr %this.addr, align 8
  %_M_impl = getelementptr inbounds %"struct.std::_Vector_base", ptr %this1, i32 0, i32 0
  %_M_finish = getelementptr inbounds %"struct.std::_Vector_base<char, std::allocator<char>>::_Vector_impl_data", ptr %_M_impl, i32 0, i32 1
  call void @_ZN9__gnu_cxx17__normal_iteratorIPcSt6vectorIcSaIcEEEC2ERKS1_(ptr noundef nonnull align 8 dereferenceable(8) %retval, ptr noundef nonnull align 8 dereferenceable(8) %_M_finish) #13
  %coerce.dive = getelementptr inbounds %"class.__gnu_cxx::__normal_iterator", ptr %retval, i32 0, i32 0
  %0 = load ptr, ptr %coerce.dive, align 8
  ret ptr %0
}

; Function Attrs: mustprogress nounwind uwtable
define linkonce_odr dso_local noundef ptr @_ZNK4node17ContainerOfHelperI8uv_tcp_sNS_9inspector9TcpHolderEEcvPT_IS3_EEv(ptr noundef nonnull align 8 dereferenceable(8) %this) #0 comdat align 2 {
entry:
  %this.addr = alloca ptr, align 8
  store ptr %this, ptr %this.addr, align 8
  %this1 = load ptr, ptr %this.addr, align 8
  %pointer_ = getelementptr inbounds %"class.node::ContainerOfHelper", ptr %this1, i32 0, i32 0
  %0 = load ptr, ptr %pointer_, align 8
  ret ptr %0
}

; Function Attrs: mustprogress nounwind uwtable
define linkonce_odr dso_local ptr @_ZN4node11ContainerOfI8uv_tcp_sNS_9inspector9TcpHolderEEENS_17ContainerOfHelperIT_T0_EEMS6_S5_PS5_(i64 %field, ptr noundef %pointer) #0 comdat {
entry:
  %retval = alloca %"class.node::ContainerOfHelper", align 8
  %field.addr = alloca i64, align 8
  %pointer.addr = alloca ptr, align 8
  store i64 %field, ptr %field.addr, align 8
  store ptr %pointer, ptr %pointer.addr, align 8
  %0 = load i64, ptr %field.addr, align 8
  %1 = load ptr, ptr %pointer.addr, align 8
  call void @_ZN4node17ContainerOfHelperI8uv_tcp_sNS_9inspector9TcpHolderEEC2EMS3_S1_PS1_(ptr noundef nonnull align 8 dereferenceable(8) %retval, i64 %0, ptr noundef %1)
  %coerce.dive = getelementptr inbounds %"class.node::ContainerOfHelper", ptr %retval, i32 0, i32 0
  %2 = load ptr, ptr %coerce.dive, align 8
  ret ptr %2
}

; Function Attrs: mustprogress nounwind uwtable
define dso_local void @_ZN4node9inspector9TcpHolder12ReclaimUvBufEPK8uv_buf_tl(ptr noundef nonnull align 8 dereferenceable(288) %this, ptr noundef %buf, i64 noundef %read) #0 align 2 {
entry:
  %this.addr = alloca ptr, align 8
  %buf.addr = alloca ptr, align 8
  %read.addr = alloca i64, align 8
  %agg.tmp = alloca %"class.__gnu_cxx::__normal_iterator.12", align 8
  %ref.tmp = alloca %"class.__gnu_cxx::__normal_iterator", align 8
  %coerce = alloca %"class.__gnu_cxx::__normal_iterator", align 8
  store ptr %this, ptr %this.addr, align 8
  store ptr %buf, ptr %buf.addr, align 8
  store i64 %read, ptr %read.addr, align 8
  %this1 = load ptr, ptr %this.addr, align 8
  %0 = load i64, ptr %read.addr, align 8
  %cmp = icmp sgt i64 %0, 0
  br i1 %cmp, label %if.then, label %if.end

if.then:                                          ; preds = %entry
  %buffer = getelementptr inbounds %"class.node::inspector::TcpHolder", ptr %this1, i32 0, i32 3
  %buffer2 = getelementptr inbounds %"class.node::inspector::TcpHolder", ptr %this1, i32 0, i32 3
  %call = call ptr @_ZNSt6vectorIcSaIcEE3endEv(ptr noundef nonnull align 8 dereferenceable(24) %buffer2) #13
  %coerce.dive = getelementptr inbounds %"class.__gnu_cxx::__normal_iterator", ptr %ref.tmp, i32 0, i32 0
  store ptr %call, ptr %coerce.dive, align 8
  call void @_ZN9__gnu_cxx17__normal_iteratorIPKcSt6vectorIcSaIcEEEC2IPcvEERKNS0_IT_S5_EE(ptr noundef nonnull align 8 dereferenceable(8) %agg.tmp, ptr noundef nonnull align 8 dereferenceable(8) %ref.tmp) #13
  %1 = load ptr, ptr %buf.addr, align 8
  %base = getelementptr inbounds %struct.uv_buf_t, ptr %1, i32 0, i32 0
  %2 = load ptr, ptr %base, align 8
  %3 = load ptr, ptr %buf.addr, align 8
  %base3 = getelementptr inbounds %struct.uv_buf_t, ptr %3, i32 0, i32 0
  %4 = load ptr, ptr %base3, align 8
  %5 = load i64, ptr %read.addr, align 8
  %add.ptr = getelementptr inbounds i8, ptr %4, i64 %5
  %coerce.dive4 = getelementptr inbounds %"class.__gnu_cxx::__normal_iterator.12", ptr %agg.tmp, i32 0, i32 0
  %6 = load ptr, ptr %coerce.dive4, align 8
  %call5 = call ptr @_ZNSt6vectorIcSaIcEE6insertIPcvEEN9__gnu_cxx17__normal_iteratorIS3_S1_EENS5_IPKcS1_EET_SA_(ptr noundef nonnull align 8 dereferenceable(24) %buffer, ptr %6, ptr noundef %2, ptr noundef %add.ptr)
  %coerce.dive6 = getelementptr inbounds %"class.__gnu_cxx::__normal_iterator", ptr %coerce, i32 0, i32 0
  store ptr %call5, ptr %coerce.dive6, align 8
  br label %if.end

if.end:                                           ; preds = %if.then, %entry
  %7 = load ptr, ptr %buf.addr, align 8
  %base7 = getelementptr inbounds %struct.uv_buf_t, ptr %7, i32 0, i32 0
  %8 = load ptr, ptr %base7, align 8
  %isnull = icmp eq ptr %8, null
  br i1 %isnull, label %delete.end, label %delete.notnull

delete.notnull:                                   ; preds = %if.end
  call void @_ZdaPv(ptr noundef %8) #16
  br label %delete.end

delete.end:                                       ; preds = %delete.notnull, %if.end
  ret void
}

; Function Attrs: mustprogress nounwind uwtable
define linkonce_odr dso_local noundef ptr @_ZN4node9inspector9TcpHolder4FromEPv(ptr noundef %handle) #0 comdat align 2 {
entry:
  %handle.addr = alloca ptr, align 8
  %ref.tmp = alloca %"class.node::ContainerOfHelper", align 8
  store ptr %handle, ptr %handle.addr, align 8
  %0 = load ptr, ptr %handle.addr, align 8
  %call = call ptr @_ZN4node11ContainerOfI8uv_tcp_sNS_9inspector9TcpHolderEEENS_17ContainerOfHelperIT_T0_EEMS6_S5_PS5_(i64 0, ptr noundef %0)
  %coerce.dive = getelementptr inbounds %"class.node::ContainerOfHelper", ptr %ref.tmp, i32 0, i32 0
  store ptr %call, ptr %coerce.dive, align 8
  %call1 = call noundef ptr @_ZNK4node17ContainerOfHelperI8uv_tcp_sNS_9inspector9TcpHolderEEcvPT_IS3_EEv(ptr noundef nonnull align 8 dereferenceable(8) %ref.tmp)
  ret ptr %call1
}

; Function Attrs: mustprogress nounwind uwtable
define dso_local void @_ZN4node9inspector9TcpHolder16OnDataReceivedCbEP11uv_stream_slPK8uv_buf_t(ptr noundef %tcp, i64 noundef %nread, ptr noundef %buf) #0 align 2 {
entry:
  %tcp.addr = alloca ptr, align 8
  %nread.addr = alloca i64, align 8
  %buf.addr = alloca ptr, align 8
  %holder = alloca ptr, align 8
  store ptr %tcp, ptr %tcp.addr, align 8
  store i64 %nread, ptr %nread.addr, align 8
  store ptr %buf, ptr %buf.addr, align 8
  %0 = load ptr, ptr %tcp.addr, align 8
  %call = call noundef ptr @_ZN4node9inspector9TcpHolder4FromEPv(ptr noundef %0)
  store ptr %call, ptr %holder, align 8
  %1 = load ptr, ptr %holder, align 8
  %2 = load ptr, ptr %buf.addr, align 8
  %3 = load i64, ptr %nread.addr, align 8
  call void @_ZN4node9inspector9TcpHolder12ReclaimUvBufEPK8uv_buf_tl(ptr noundef nonnull align 8 dereferenceable(288) %1, ptr noundef %2, i64 noundef %3)
  %4 = load i64, ptr %nread.addr, align 8
  %cmp = icmp slt i64 %4, 0
  br i1 %cmp, label %if.then, label %lor.lhs.false

lor.lhs.false:                                    ; preds = %entry
  %5 = load i64, ptr %nread.addr, align 8
  %cmp1 = icmp eq i64 %5, -4095
  br i1 %cmp1, label %if.then, label %if.else

if.then:                                          ; preds = %lor.lhs.false, %entry
  %6 = load ptr, ptr %holder, align 8
  %handler_ = getelementptr inbounds %"class.node::inspector::TcpHolder", ptr %6, i32 0, i32 2
  %7 = load ptr, ptr %handler_, align 8
  %vtable = load ptr, ptr %7, align 8
  %vfn = getelementptr inbounds ptr, ptr %vtable, i64 2
  %8 = load ptr, ptr %vfn, align 8
  call void %8(ptr noundef nonnull align 8 dereferenceable(24) %7)
  br label %if.end

if.else:                                          ; preds = %lor.lhs.false
  %9 = load ptr, ptr %holder, align 8
  %handler_2 = getelementptr inbounds %"class.node::inspector::TcpHolder", ptr %9, i32 0, i32 2
  %10 = load ptr, ptr %handler_2, align 8
  %11 = load ptr, ptr %holder, align 8
  %buffer = getelementptr inbounds %"class.node::inspector::TcpHolder", ptr %11, i32 0, i32 3
  %vtable3 = load ptr, ptr %10, align 8
  %vfn4 = getelementptr inbounds ptr, ptr %vtable3, i64 1
  %12 = load ptr, ptr %vfn4, align 8
  call void %12(ptr noundef nonnull align 8 dereferenceable(24) %10, ptr noundef %buffer)
  br label %if.end

if.end:                                           ; preds = %if.else, %if.then
  ret void
}