; Function Attrs: mustprogress nounwind uwtable
define dso_local void @_ZN4node9inspector9TcpHolder16OnDataReceivedCbEP11uv_stream_slPK8uv_buf_t(ptr noundef %tcp, i64 noundef %nread, ptr nocapture noundef readonly %buf) #0 align 2 {
entry:
  %cmp.i = icmp sgt i64 %nread, 0
  br i1 %cmp.i, label %if.then.i, label %if.end.i

if.then.i:                                        ; preds = %entry
  %buffer.i = getelementptr inbounds i8, ptr %tcp, i64 264
  %_M_finish.i.i = getelementptr inbounds i8, ptr %tcp, i64 272
  %0 = load ptr, ptr %_M_finish.i.i, align 8
  %1 = load ptr, ptr %buf, align 8
  %add.ptr.i = getelementptr inbounds i8, ptr %1, i64 %nread
  %2 = load ptr, ptr %buffer.i, align 8
  %sub.ptr.lhs.cast.i.i.i = ptrtoint ptr %0 to i64
  %sub.ptr.rhs.cast.i.i.i = ptrtoint ptr %2 to i64
  %sub.ptr.sub.i.i.i = sub i64 %sub.ptr.lhs.cast.i.i.i, %sub.ptr.rhs.cast.i.i.i
  %add.ptr.i.i.i = getelementptr inbounds i8, ptr %2, i64 %sub.ptr.sub.i.i.i
  tail call void @_ZNSt6vectorIcSaIcEE15_M_range_insertIPcEEvN9__gnu_cxx17__normal_iteratorIS3_S1_EET_S7_St20forward_iterator_tag(ptr noundef nonnull align 8 dereferenceable(24) %buffer.i, ptr %add.ptr.i.i.i, ptr noundef %1, ptr noundef nonnull %add.ptr.i)
  br label %if.end.i

if.end.i:                                         ; preds = %if.then.i, %entry
  %3 = load ptr, ptr %buf, align 8
  %isnull.i = icmp eq ptr %3, null
  br i1 %isnull.i, label %_ZN4node9inspector9TcpHolder12ReclaimUvBufEPK8uv_buf_tl.exit, label %delete.notnull.i

delete.notnull.i:                                 ; preds = %if.end.i
  tail call void @_ZdaPv(ptr noundef nonnull %3) #22
  br label %_ZN4node9inspector9TcpHolder12ReclaimUvBufEPK8uv_buf_tl.exit

_ZN4node9inspector9TcpHolder12ReclaimUvBufEPK8uv_buf_tl.exit: ; preds = %if.end.i, %delete.notnull.i
  %cmp = icmp slt i64 %nread, 0
  %handler_ = getelementptr inbounds i8, ptr %tcp, i64 256
  %4 = load ptr, ptr %handler_, align 8
  br i1 %cmp, label %if.then, label %if.else

if.then:                                          ; preds = %_ZN4node9inspector9TcpHolder12ReclaimUvBufEPK8uv_buf_tl.exit
  %vtable = load ptr, ptr %4, align 8
  %vfn = getelementptr inbounds i8, ptr %vtable, i64 16
  %5 = load ptr, ptr %vfn, align 8
  tail call void %5(ptr noundef nonnull align 8 dereferenceable(24) %4) #19
  br label %if.end

if.else:                                          ; preds = %_ZN4node9inspector9TcpHolder12ReclaimUvBufEPK8uv_buf_tl.exit
  %buffer = getelementptr inbounds i8, ptr %tcp, i64 264
  %vtable3 = load ptr, ptr %4, align 8
  %vfn4 = getelementptr inbounds i8, ptr %vtable3, i64 8
  %6 = load ptr, ptr %vfn4, align 8
  tail call void %6(ptr noundef nonnull align 8 dereferenceable(24) %4, ptr noundef nonnull %buffer) #19
  br label %if.end

if.end:                                           ; preds = %if.else, %if.then
  ret void
}